target datalayout = "e-m:e-p270:32:32-p271:32:32-p272:64:64-i64:64-i128:128-f80:128-n8:16:32:64-S128"
target triple = "x86_64-unknown-linux-gnu"

; Function Attrs: mustprogress nounwind uwtable
define dso_local noundef i32 @_ZN4node5http225TranslateNghttp2ErrorCodeEi(i32 noundef %libErrorCode) #4 {
entry:
  %retval = alloca i32, align 4
  %libErrorCode.addr = alloca i32, align 4
  store i32 %libErrorCode, ptr %libErrorCode.addr, align 4
  %0 = load i32, ptr %libErrorCode.addr, align 4
  switch i32 %0, label %sw.default [
    i32 -510, label %sw.bb
    i32 -523, label %sw.bb1
    i32 -522, label %sw.bb2
    i32 -524, label %sw.bb3
    i32 -533, label %sw.bb4
    i32 -505, label %sw.bb5
    i32 -531, label %sw.bb5
    i32 -532, label %sw.bb5
  ]

sw.bb:                                            ; preds = %entry
  store i32 5, ptr %retval, align 4
  br label %return

sw.bb1:                                           ; preds = %entry
  store i32 9, ptr %retval, align 4
  br label %return

sw.bb2:                                           ; preds = %entry
  store i32 6, ptr %retval, align 4
  br label %return

sw.bb3:                                           ; preds = %entry
  store i32 3, ptr %retval, align 4
  br label %return

sw.bb4:                                           ; preds = %entry
  store i32 7, ptr %retval, align 4
  br label %return

sw.bb5:                                           ; preds = %entry, %entry, %entry
  store i32 1, ptr %retval, align 4
  br label %return

sw.default:                                       ; preds = %entry
  store i32 2, ptr %retval, align 4
  br label %return

return:                                           ; preds = %sw.default, %sw.bb5, %sw.bb4, %sw.bb3, %sw.bb2, %sw.bb1, %sw.bb
  %1 = load i32, ptr %retval, align 4
  ret i32 %1
}