; Function Attrs: mustprogress nofree norecurse nosync nounwind willreturn memory(none) uwtable
define dso_local noundef i32 @_ZN4node5http225TranslateNghttp2ErrorCodeEi(i32 noundef %libErrorCode) local_unnamed_addr #13 {
entry:
  switch i32 %libErrorCode, label %sw.default [
    i32 -510, label %return
    i32 -523, label %sw.bb1
    i32 -522, label %sw.bb2
    i32 -524, label %sw.bb3
    i32 -533, label %sw.bb4
    i32 -505, label %sw.bb5
    i32 -531, label %sw.bb5
    i32 -532, label %sw.bb5
  ]

sw.bb1:                                           ; preds = %entry
  br label %return

sw.bb2:                                           ; preds = %entry
  br label %return

sw.bb3:                                           ; preds = %entry
  br label %return

sw.bb4:                                           ; preds = %entry
  br label %return

sw.bb5:                                           ; preds = %entry, %entry, %entry
  br label %return

sw.default:                                       ; preds = %entry
  br label %return

return:                                           ; preds = %entry, %sw.default, %sw.bb5, %sw.bb4, %sw.bb3, %sw.bb2, %sw.bb1
  %retval.0 = phi i32 [ 2, %sw.default ], [ 1, %sw.bb5 ], [ 7, %sw.bb4 ], [ 3, %sw.bb3 ], [ 6, %sw.bb2 ], [ 9, %sw.bb1 ], [ 5, %entry ]
  ret i32 %retval.0
}